; ModuleID = '28/507.c'
source_filename = "28/507.c"
target datalayout = "e-m:e-p270:32:32-p271:32:32-p272:64:64-i64:64-f80:128-n8:16:32:64-S128"
target triple = "x86_64-pc-linux-gnu"

@len = common dso_local global i32 0, align 4
@.str = private unnamed_addr constant [3 x i8] c"%d\00", align 1
@.str.1 = private unnamed_addr constant [4 x i8] c",%d\00", align 1

; Function Attrs: noinline nounwind uwtable
define dso_local i32 @checkbegin(i8* %0, i32 %1) #0 {
  %3 = alloca i32, align 4
  %4 = alloca i8*, align 8
  %5 = alloca i32, align 4
  %6 = alloca i32, align 4
  store i8* %0, i8** %4, align 8
  store i32 %1, i32* %5, align 4
  %7 = load i32, i32* %5, align 4
  store i32 %7, i32* %6, align 4
  br label %8

8:                                                ; preds = %23, %2
  %9 = load i32, i32* %6, align 4
  %10 = load i32, i32* @len, align 4
  %11 = icmp slt i32 %9, %10
  br i1 %11, label %12, label %26

12:                                               ; preds = %8
  %13 = load i8*, i8** %4, align 8
  %14 = load i32, i32* %6, align 4
  %15 = sext i32 %14 to i64
  %16 = getelementptr inbounds i8, i8* %13, i64 %15
  %17 = load i8, i8* %16, align 1
  %18 = sext i8 %17 to i32
  %19 = icmp ne i32 %18, 32
  br i1 %19, label %20, label %22

20:                                               ; preds = %12
  %21 = load i32, i32* %6, align 4
  store i32 %21, i32* %3, align 4
  br label %26

22:                                               ; preds = %12
  br label %23

23:                                               ; preds = %22
  %24 = load i32, i32* %6, align 4
  %25 = add nsw i32 %24, 1
  store i32 %25, i32* %6, align 4
  br label %8

26:                                               ; preds = %20, %8
  %27 = load i32, i32* %3, align 4
  ret i32 %27
}

; Function Attrs: noinline nounwind uwtable
define dso_local i32 @checkend(i8* %0, i32 %1) #0 {
  %3 = alloca i32, align 4
  %4 = alloca i8*, align 8
  %5 = alloca i32, align 4
  %6 = alloca i32, align 4
  store i8* %0, i8** %4, align 8
  store i32 %1, i32* %5, align 4
  %7 = load i32, i32* %5, align 4
  %8 = add nsw i32 %7, 1
  store i32 %8, i32* %6, align 4
  br label %9

9:                                                ; preds = %32, %2
  %10 = load i32, i32* %6, align 4
  %11 = load i32, i32* @len, align 4
  %12 = icmp sle i32 %10, %11
  br i1 %12, label %13, label %35

13:                                               ; preds = %9
  %14 = load i8*, i8** %4, align 8
  %15 = load i32, i32* %6, align 4
  %16 = sext i32 %15 to i64
  %17 = getelementptr inbounds i8, i8* %14, i64 %16
  %18 = load i8, i8* %17, align 1
  %19 = sext i8 %18 to i32
  %20 = icmp eq i32 %19, 32
  br i1 %20, label %29, label %21

21:                                               ; preds = %13
  %22 = load i8*, i8** %4, align 8
  %23 = load i32, i32* %6, align 4
  %24 = sext i32 %23 to i64
  %25 = getelementptr inbounds i8, i8* %22, i64 %24
  %26 = load i8, i8* %25, align 1
  %27 = sext i8 %26 to i32
  %28 = icmp eq i32 %27, 0
  br i1 %28, label %29, label %31

29:                                               ; preds = %21, %13
  %30 = load i32, i32* %6, align 4
  store i32 %30, i32* %3, align 4
  br label %35

31:                                               ; preds = %21
  br label %32

32:                                               ; preds = %31
  %33 = load i32, i32* %6, align 4
  %34 = add nsw i32 %33, 1
  store i32 %34, i32* %6, align 4
  br label %9

35:                                               ; preds = %29, %9
  %36 = load i32, i32* %3, align 4
  ret i32 %36
}

; Function Attrs: noinline nounwind uwtable
define dso_local i32 @main() #0 {
  %1 = alloca i32, align 4
  %2 = alloca [1000 x i8], align 16
  %3 = alloca i32, align 4
  %4 = alloca i32, align 4
  store i32 0, i32* %1, align 4
  store i32 0, i32* %3, align 4
  %5 = getelementptr inbounds [1000 x i8], [1000 x i8]* %2, i64 0, i64 0
  %6 = call i32 (i8*, ...) bitcast (i32 (...)* @gets to i32 (i8*, ...)*)(i8* %5)
  %7 = getelementptr inbounds [1000 x i8], [1000 x i8]* %2, i64 0, i64 0
  %8 = call i64 @strlen(i8* %7) #3
  %9 = trunc i64 %8 to i32
  store i32 %9, i32* @len, align 4
  %10 = getelementptr inbounds [1000 x i8], [1000 x i8]* %2, i64 0, i64 0
  %11 = getelementptr inbounds [1000 x i8], [1000 x i8]* %2, i64 0, i64 0
  %12 = load i32, i32* %3, align 4
  %13 = call i32 @checkbegin(i8* %11, i32 %12)
  %14 = call i32 @checkend(i8* %10, i32 %13)
  %15 = getelementptr inbounds [1000 x i8], [1000 x i8]* %2, i64 0, i64 0
  %16 = load i32, i32* %3, align 4
  %17 = call i32 @checkbegin(i8* %15, i32 %16)
  %18 = sub nsw i32 %14, %17
  store i32 %18, i32* %4, align 4
  %19 = load i32, i32* %4, align 4
  %20 = call i32 (i8*, ...) @printf(i8* getelementptr inbounds ([3 x i8], [3 x i8]* @.str, i64 0, i64 0), i32 %19)
  %21 = getelementptr inbounds [1000 x i8], [1000 x i8]* %2, i64 0, i64 0
  %22 = getelementptr inbounds [1000 x i8], [1000 x i8]* %2, i64 0, i64 0
  %23 = load i32, i32* %3, align 4
  %24 = call i32 @checkbegin(i8* %22, i32 %23)
  %25 = call i32 @checkend(i8* %21, i32 %24)
  %26 = add nsw i32 %25, 1
  store i32 %26, i32* %3, align 4
  br label %27

27:                                               ; preds = %31, %0
  %28 = load i32, i32* %3, align 4
  %29 = load i32, i32* @len, align 4
  %30 = icmp sle i32 %28, %29
  br i1 %30, label %31, label %49

31:                                               ; preds = %27
  %32 = getelementptr inbounds [1000 x i8], [1000 x i8]* %2, i64 0, i64 0
  %33 = getelementptr inbounds [1000 x i8], [1000 x i8]* %2, i64 0, i64 0
  %34 = load i32, i32* %3, align 4
  %35 = call i32 @checkbegin(i8* %33, i32 %34)
  %36 = call i32 @checkend(i8* %32, i32 %35)
  %37 = getelementptr inbounds [1000 x i8], [1000 x i8]* %2, i64 0, i64 0
  %38 = load i32, i32* %3, align 4
  %39 = call i32 @checkbegin(i8* %37, i32 %38)
  %40 = sub nsw i32 %36, %39
  store i32 %40, i32* %4, align 4
  %41 = load i32, i32* %4, align 4
  %42 = call i32 (i8*, ...) @printf(i8* getelementptr inbounds ([4 x i8], [4 x i8]* @.str.1, i64 0, i64 0), i32 %41)
  %43 = getelementptr inbounds [1000 x i8], [1000 x i8]* %2, i64 0, i64 0
  %44 = getelementptr inbounds [1000 x i8], [1000 x i8]* %2, i64 0, i64 0
  %45 = load i32, i32* %3, align 4
  %46 = call i32 @checkbegin(i8* %44, i32 %45)
  %47 = call i32 @checkend(i8* %43, i32 %46)
  %48 = add nsw i32 %47, 1
  store i32 %48, i32* %3, align 4
  br label %27

49:                                               ; preds = %27
  %50 = load i32, i32* %1, align 4
  ret i32 %50
}

declare dso_local i32 @gets(...) #1

; Function Attrs: nounwind readonly
declare dso_local i64 @strlen(i8*) #2

declare dso_local i32 @printf(i8*, ...) #1


!llvm.module.flags = !{!0}
!llvm.ident = !{!1}

!0 = !{i32 1, !"wchar_size", i32 4}
!1 = !{!"clang version 10.0.0-4ubuntu1 "}
